target datalayout = "e-m:e-p270:32:32-p271:32:32-p272:64:64-i64:64-i128:128-f80:128-n8:16:32:64-S128"
target triple = "x86_64-pc-linux-gnu"

%"class.pxrInternal_v0_24__pxrReserved__::TfStopwatch" = type { i64, i64, i64 }

@.str = private unnamed_addr constant [59 x i8] c"{'profile':'%s','metric':'time','value':%f,'samples':%zu}\0A\00", align 1

; Function Attrs: mustprogress nounwind uwtable
define linkonce_odr dso_local noundef i64 @_ZNK32pxrInternal_v0_24__pxrReserved__11TfStopwatch14GetSampleCountEv(ptr noundef nonnull align 8 dereferenceable(24) %0) #5 comdat align 2 {
  %2 = alloca ptr, align 8
  store ptr %0, ptr %2, align 8
  %3 = load ptr, ptr %2, align 8
  %4 = getelementptr inbounds nuw %"class.pxrInternal_v0_24__pxrReserved__::TfStopwatch", ptr %3, i32 0, i32 2
  %5 = load i64, ptr %4, align 8
  ret i64 %5
}

; Function Attrs: mustprogress uwtable
define linkonce_odr dso_local noundef double @_ZNK32pxrInternal_v0_24__pxrReserved__11TfStopwatch10GetSecondsEv(ptr noundef nonnull align 8 dereferenceable(24) %0) #4 comdat align 2 {
  %2 = alloca ptr, align 8
  store ptr %0, ptr %2, align 8
  %3 = load ptr, ptr %2, align 8
  %4 = getelementptr inbounds nuw %"class.pxrInternal_v0_24__pxrReserved__::TfStopwatch", ptr %3, i32 0, i32 0
  %5 = load i64, ptr %4, align 8
  %6 = call noundef double @_ZN32pxrInternal_v0_24__pxrReserved__18ArchTicksToSecondsEm(i64 noundef %5)
  ret double %6
}

; Function Attrs: mustprogress uwtable
define dso_local void @_Z10WriteStatsP8_IO_FILERKNSt7__cxx1112basic_stringIcSt11char_traitsIcESaIcEEERKN32pxrInternal_v0_24__pxrReserved__11TfStopwatchE(ptr noundef %0, ptr noundef nonnull align 8 dereferenceable(32) %1, ptr noundef nonnull align 8 dereferenceable(24) %2) #4 {
  %4 = alloca ptr, align 8
  %5 = alloca ptr, align 8
  %6 = alloca ptr, align 8
  store ptr %0, ptr %4, align 8
  store ptr %1, ptr %5, align 8
  store ptr %2, ptr %6, align 8
  %7 = load ptr, ptr %4, align 8
  %8 = load ptr, ptr %5, align 8
  %9 = call noundef ptr @_ZNKSt7__cxx1112basic_stringIcSt11char_traitsIcESaIcEE5c_strEv(ptr noundef nonnull align 8 dereferenceable(32) %8) #3
  %10 = load ptr, ptr %6, align 8
  %11 = call noundef double @_ZNK32pxrInternal_v0_24__pxrReserved__11TfStopwatch10GetSecondsEv(ptr noundef nonnull align 8 dereferenceable(24) %10)
  %12 = load ptr, ptr %6, align 8
  %13 = call noundef i64 @_ZNK32pxrInternal_v0_24__pxrReserved__11TfStopwatch14GetSampleCountEv(ptr noundef nonnull align 8 dereferenceable(24) %12)
  %14 = call i32 (ptr, ptr, ...) @fprintf(ptr noundef %7, ptr noundef @.str, ptr noundef %9, double noundef %11, i64 noundef %13) #3
  ret void
}