; Function Attrs: mustprogress uwtable
define dso_local void @_Z10WriteStatsP8_IO_FILERKNSt7__cxx1112basic_stringIcSt11char_traitsIcESaIcEEERKN32pxrInternal_v0_24__pxrReserved__11TfStopwatchE(ptr noundef captures(none) %0, ptr noundef nonnull align 8 dereferenceable(32) %1, ptr noundef nonnull readonly align 8 captures(none) dereferenceable(24) %2) local_unnamed_addr #3 {
  %4 = tail call noundef ptr @_ZNKSt7__cxx1112basic_stringIcSt11char_traitsIcESaIcEE5c_strEv(ptr noundef nonnull align 8 dereferenceable(32) %1) #18
  %5 = load i64, ptr %2, align 8
  %6 = tail call noundef double @_ZN32pxrInternal_v0_24__pxrReserved__18ArchTicksToSecondsEm(i64 noundef %5)
  %7 = getelementptr inbounds nuw i8, ptr %2, i64 16
  %8 = load i64, ptr %7, align 8
  %9 = tail call i32 (ptr, ptr, ...) @fprintf(ptr noundef %0, ptr noundef nonnull @.str, ptr noundef %4, double noundef %6, i64 noundef %8) #18
  ret void
}